target datalayout = "e-m:e-p270:32:32-p271:32:32-p272:64:64-i64:64-i128:128-f80:128-n8:16:32:64-S128"
target triple = "x86_64-pc-linux-gnu"

%struct.Ivy_Obj_t_ = type { i32, i32, i32, i32, ptr, ptr, ptr, ptr, ptr, ptr, ptr, ptr }
%struct.Ivy_FraigMan_t_ = type { ptr, i64, i64, ptr, ptr, i32, ptr, ptr, i32, ptr, ptr, %struct.Ivy_FraigList_t_, %struct.Ivy_FraigList_t_, i32, ptr, i32, ptr, ptr, i32, i32, i32, i32, i32, i32, i32, i32, i32, i32, i32, i32, i32, i64, i64, i64, i64, i64, i64, i64, i64, i64, i64 }
%struct.Ivy_FraigList_t_ = type { ptr, ptr, i32 }
%struct.sat_solver_t = type { i32, i32, i32, i32, %struct.Sat_Mem_t_, i32, i32, ptr, ptr, i32, i32, i32, i32, i32, i64, i64, i64, ptr, ptr, i32, i32, %struct.veci_t, ptr, i32, ptr, ptr, ptr, ptr, ptr, ptr, ptr, ptr, %struct.veci_t, %struct.veci_t, %struct.veci_t, %struct.veci_t, ptr, %struct.veci_t, i32, i32, i32, double, double, i32, i32, i32, %struct.stats_t, i32, i32, i32, i32, i32, i64, i64, i64, %struct.veci_t, ptr, i32, i32, i32, %struct.veci_t, %struct.veci_t, i32, i32, i32, ptr, ptr, i32, ptr, i32, i32, %struct.veci_t, %struct.veci_t, %struct.veci_t, ptr, ptr, i32, ptr }
%struct.Sat_Mem_t_ = type { [2 x i32], [2 x i32], [2 x i32], [2 x i32], i32, i32, i32, i32, ptr }
%struct.stats_t = type { i32, i32, i32, i64, i64, i64, i64, i64, i64, i64 }
%struct.veci_t = type { i32, i32, ptr }
%struct.Vec_Ptr_t_ = type { i32, i32, ptr }

; Function Attrs: inlinehint nounwind uwtable
define internal void @Ivy_InfoXorBit(ptr noundef %0, i32 noundef %1) #4 {
  %3 = alloca ptr, align 8
  %4 = alloca i32, align 4
  store ptr %0, ptr %3, align 8, !tbaa !139
  store i32 %1, ptr %4, align 4, !tbaa !44
  %5 = load i32, ptr %4, align 4, !tbaa !44
  %6 = and i32 %5, 31
  %7 = shl i32 1, %6
  %8 = load ptr, ptr %3, align 8, !tbaa !139
  %9 = load i32, ptr %4, align 4, !tbaa !44
  %10 = ashr i32 %9, 5
  %11 = sext i32 %10 to i64
  %12 = getelementptr inbounds i32, ptr %8, i64 %11
  %13 = load i32, ptr %12, align 4, !tbaa !44
  %14 = xor i32 %13, %7
  store i32 %14, ptr %12, align 4, !tbaa !44
  ret void
}

; Function Attrs: inlinehint nounwind uwtable
define internal i32 @sat_solver_var_value(ptr noundef %0, i32 noundef %1) #4 {
  %3 = alloca ptr, align 8
  %4 = alloca i32, align 4
  store ptr %0, ptr %3, align 8, !tbaa !199
  store i32 %1, ptr %4, align 4, !tbaa !44
  %5 = load ptr, ptr %3, align 8, !tbaa !199
  %6 = getelementptr inbounds nuw %struct.sat_solver_t, ptr %5, i32 0, i32 36
  %7 = load ptr, ptr %6, align 8, !tbaa !194
  %8 = load i32, ptr %4, align 4, !tbaa !44
  %9 = sext i32 %8 to i64
  %10 = getelementptr inbounds i32, ptr %7, i64 %9
  %11 = load i32, ptr %10, align 4, !tbaa !44
  %12 = icmp eq i32 %11, 1
  %13 = zext i1 %12 to i32
  ret i32 %13
}

; Function Attrs: inlinehint nounwind uwtable
define internal i32 @Ivy_ObjSatNum(ptr noundef %0) #4 {
  %2 = alloca ptr, align 8
  store ptr %0, ptr %2, align 8, !tbaa !72
  %3 = load ptr, ptr %2, align 8, !tbaa !72
  %4 = getelementptr inbounds nuw %struct.Ivy_Obj_t_, ptr %3, i32 0, i32 7
  %5 = load ptr, ptr %4, align 8, !tbaa !79
  %6 = ptrtoint ptr %5 to i64
  %7 = trunc i64 %6 to i32
  ret i32 %7
}

; Function Attrs: inlinehint nounwind uwtable
define internal i32 @Ivy_InfoHasBit(ptr noundef %0, i32 noundef %1) #4 {
  %3 = alloca ptr, align 8
  %4 = alloca i32, align 4
  store ptr %0, ptr %3, align 8, !tbaa !139
  store i32 %1, ptr %4, align 4, !tbaa !44
  %5 = load ptr, ptr %3, align 8, !tbaa !139
  %6 = load i32, ptr %4, align 4, !tbaa !44
  %7 = ashr i32 %6, 5
  %8 = sext i32 %7 to i64
  %9 = getelementptr inbounds i32, ptr %5, i64 %8
  %10 = load i32, ptr %9, align 4, !tbaa !44
  %11 = load i32, ptr %4, align 4, !tbaa !44
  %12 = and i32 %11, 31
  %13 = shl i32 1, %12
  %14 = and i32 %10, %13
  %15 = icmp ugt i32 %14, 0
  %16 = zext i1 %15 to i32
  ret i32 %16
}

; Function Attrs: inlinehint nounwind uwtable
define internal ptr @Vec_PtrEntry(ptr noundef %0, i32 noundef %1) #4 {
  %3 = alloca ptr, align 8
  %4 = alloca i32, align 4
  store ptr %0, ptr %3, align 8, !tbaa !130
  store i32 %1, ptr %4, align 4, !tbaa !44
  %5 = load ptr, ptr %3, align 8, !tbaa !130
  %6 = getelementptr inbounds nuw %struct.Vec_Ptr_t_, ptr %5, i32 0, i32 2
  %7 = load ptr, ptr %6, align 8, !tbaa !133
  %8 = load i32, ptr %4, align 4, !tbaa !44
  %9 = sext i32 %8 to i64
  %10 = getelementptr inbounds ptr, ptr %7, i64 %9
  %11 = load ptr, ptr %10, align 8, !tbaa !22
  ret ptr %11
}

; Function Attrs: inlinehint nounwind uwtable
define internal i32 @Vec_PtrSize(ptr noundef %0) #4 {
  %2 = alloca ptr, align 8
  store ptr %0, ptr %2, align 8, !tbaa !130
  %3 = load ptr, ptr %2, align 8, !tbaa !130
  %4 = getelementptr inbounds nuw %struct.Vec_Ptr_t_, ptr %3, i32 0, i32 1
  %5 = load i32, ptr %4, align 4, !tbaa !131
  ret i32 %5
}

; Function Attrs: inlinehint nounwind uwtable
define internal i32 @Ivy_ObjRandomSim() #4 {
  %1 = call i32 @rand() #12
  %2 = shl i32 %1, 24
  %3 = call i32 @rand() #12
  %4 = shl i32 %3, 12
  %5 = xor i32 %2, %4
  %6 = call i32 @rand() #12
  %7 = xor i32 %5, %6
  ret i32 %7
}

; Function Attrs: nounwind uwtable
define void @Ivy_FraigSavePattern3(ptr noundef %0) #0 {
  %2 = alloca ptr, align 8
  %3 = alloca ptr, align 8
  %4 = alloca i32, align 4
  store ptr %0, ptr %2, align 8, !tbaa !60
  call void @llvm.lifetime.start.p0(i64 8, ptr %3) #12
  call void @llvm.lifetime.start.p0(i64 4, ptr %4) #12
  store i32 0, ptr %4, align 4, !tbaa !44
  br label %5

5:                                                ; preds = %19, %1
  %6 = load i32, ptr %4, align 4, !tbaa !44
  %7 = load ptr, ptr %2, align 8, !tbaa !60
  %8 = getelementptr inbounds nuw %struct.Ivy_FraigMan_t_, ptr %7, i32 0, i32 8
  %9 = load i32, ptr %8, align 8, !tbaa !110
  %10 = icmp slt i32 %6, %9
  br i1 %10, label %11, label %22

11:                                               ; preds = %5
  %12 = call i32 @Ivy_ObjRandomSim()
  %13 = load ptr, ptr %2, align 8, !tbaa !60
  %14 = getelementptr inbounds nuw %struct.Ivy_FraigMan_t_, ptr %13, i32 0, i32 9
  %15 = load ptr, ptr %14, align 8, !tbaa !111
  %16 = load i32, ptr %4, align 4, !tbaa !44
  %17 = sext i32 %16 to i64
  %18 = getelementptr inbounds i32, ptr %15, i64 %17
  store i32 %12, ptr %18, align 4, !tbaa !44
  br label %19

19:                                               ; preds = %11
  %20 = load i32, ptr %4, align 4, !tbaa !44
  %21 = add nsw i32 %20, 1
  store i32 %21, ptr %4, align 4, !tbaa !44
  br label %5, !llvm.loop !197

22:                                               ; preds = %5
  store i32 0, ptr %4, align 4, !tbaa !44
  br label %23

23:                                               ; preds = %64, %22
  %24 = load i32, ptr %4, align 4, !tbaa !44
  %25 = load ptr, ptr %2, align 8, !tbaa !60
  %26 = getelementptr inbounds nuw %struct.Ivy_FraigMan_t_, ptr %25, i32 0, i32 16
  %27 = load ptr, ptr %26, align 8, !tbaa !113
  %28 = call i32 @Vec_PtrSize(ptr noundef %27)
  %29 = icmp slt i32 %24, %28
  br i1 %29, label %30, label %36

30:                                               ; preds = %23
  %31 = load ptr, ptr %2, align 8, !tbaa !60
  %32 = getelementptr inbounds nuw %struct.Ivy_FraigMan_t_, ptr %31, i32 0, i32 16
  %33 = load ptr, ptr %32, align 8, !tbaa !113
  %34 = load i32, ptr %4, align 4, !tbaa !44
  %35 = call ptr @Vec_PtrEntry(ptr noundef %33, i32 noundef %34)
  store ptr %35, ptr %3, align 8, !tbaa !72
  br label %36

36:                                               ; preds = %30, %23
  %37 = phi i1 [ false, %23 ], [ true, %30 ]
  br i1 %37, label %38, label %67

38:                                               ; preds = %36
  %39 = load ptr, ptr %2, align 8, !tbaa !60
  %40 = getelementptr inbounds nuw %struct.Ivy_FraigMan_t_, ptr %39, i32 0, i32 9
  %41 = load ptr, ptr %40, align 8, !tbaa !111
  %42 = load ptr, ptr %3, align 8, !tbaa !72
  %43 = getelementptr inbounds nuw %struct.Ivy_Obj_t_, ptr %42, i32 0, i32 0
  %44 = load i32, ptr %43, align 8, !tbaa !180
  %45 = sub nsw i32 %44, 1
  %46 = call i32 @Ivy_InfoHasBit(ptr noundef %41, i32 noundef %45)
  %47 = load ptr, ptr %2, align 8, !tbaa !60
  %48 = getelementptr inbounds nuw %struct.Ivy_FraigMan_t_, ptr %47, i32 0, i32 14
  %49 = load ptr, ptr %48, align 8, !tbaa !87
  %50 = load ptr, ptr %3, align 8, !tbaa !72
  %51 = call i32 @Ivy_ObjSatNum(ptr noundef %50)
  %52 = call i32 @sat_solver_var_value(ptr noundef %49, i32 noundef %51)
  %53 = xor i32 %46, %52
  %54 = icmp ne i32 %53, 0
  br i1 %54, label %55, label %63

55:                                               ; preds = %38
  %56 = load ptr, ptr %2, align 8, !tbaa !60
  %57 = getelementptr inbounds nuw %struct.Ivy_FraigMan_t_, ptr %56, i32 0, i32 9
  %58 = load ptr, ptr %57, align 8, !tbaa !111
  %59 = load ptr, ptr %3, align 8, !tbaa !72
  %60 = getelementptr inbounds nuw %struct.Ivy_Obj_t_, ptr %59, i32 0, i32 0
  %61 = load i32, ptr %60, align 8, !tbaa !180
  %62 = sub nsw i32 %61, 1
  call void @Ivy_InfoXorBit(ptr noundef %58, i32 noundef %62)
  br label %63

63:                                               ; preds = %55, %38
  br label %64

64:                                               ; preds = %63
  %65 = load i32, ptr %4, align 4, !tbaa !44
  %66 = add nsw i32 %65, 1
  store i32 %66, ptr %4, align 4, !tbaa !44
  br label %23, !llvm.loop !198

67:                                               ; preds = %36
  call void @llvm.lifetime.end.p0(i64 4, ptr %4) #12
  call void @llvm.lifetime.end.p0(i64 8, ptr %3) #12
  ret void
}