; Function Attrs: nounwind uwtable
define void @Ivy_FraigSavePattern3(ptr noundef readonly captures(none) %0) local_unnamed_addr #2 {
  %2 = getelementptr inbounds nuw i8, ptr %0, i64 64
  %3 = load i32, ptr %2, align 8, !tbaa !108
  %4 = icmp sgt i32 %3, 0
  br i1 %4, label %.lr.ph, label %.preheader

.lr.ph:                                           ; preds = %1
  %5 = getelementptr inbounds nuw i8, ptr %0, i64 72
  br label %16

.preheader:                                       ; preds = %16, %1
  %6 = getelementptr inbounds nuw i8, ptr %0, i64 160
  %7 = load ptr, ptr %6, align 8, !tbaa !88
  %8 = getelementptr i8, ptr %7, i64 4
  %.val19 = load i32, ptr %8, align 4, !tbaa !47
  %9 = icmp sgt i32 %.val19, 0
  br i1 %9, label %.lr.ph21, label %.critedge

.lr.ph21:                                         ; preds = %.preheader
  %10 = getelementptr i8, ptr %7, i64 8
  %.val15 = load ptr, ptr %10, align 8, !tbaa !49
  %11 = getelementptr inbounds nuw i8, ptr %0, i64 72
  %12 = load ptr, ptr %11, align 8, !tbaa !109
  %13 = getelementptr inbounds nuw i8, ptr %0, i64 144
  %14 = load ptr, ptr %13, align 8, !tbaa !71
  %15 = getelementptr i8, ptr %14, i64 328
  %.val17 = load ptr, ptr %15, align 8, !tbaa !136
  br label %29

16:                                               ; preds = %.lr.ph, %16
  %indvars.iv = phi i64 [ 0, %.lr.ph ], [ %indvars.iv.next, %16 ]
  %17 = tail call i32 @rand() #26
  %18 = shl i32 %17, 24
  %19 = tail call i32 @rand() #26
  %20 = shl i32 %19, 12
  %21 = xor i32 %20, %18
  %22 = tail call i32 @rand() #26
  %23 = xor i32 %21, %22
  %24 = load ptr, ptr %5, align 8, !tbaa !109
  %25 = getelementptr inbounds nuw i32, ptr %24, i64 %indvars.iv
  store i32 %23, ptr %25, align 4, !tbaa !38
  %indvars.iv.next = add nuw nsw i64 %indvars.iv, 1
  %26 = load i32, ptr %2, align 8, !tbaa !108
  %27 = sext i32 %26 to i64
  %28 = icmp slt i64 %indvars.iv.next, %27
  br i1 %28, label %16, label %.preheader, !llvm.loop !201

29:                                               ; preds = %.lr.ph21, %50
  %.val26 = phi i32 [ %.val19, %.lr.ph21 ], [ %.val, %50 ]
  %indvars.iv23 = phi i64 [ 0, %.lr.ph21 ], [ %indvars.iv.next24, %50 ]
  %30 = getelementptr inbounds nuw ptr, ptr %.val15, i64 %indvars.iv23
  %31 = load ptr, ptr %30, align 8, !tbaa !51
  %32 = load i32, ptr %31, align 8, !tbaa !121
  %33 = add nsw i32 %32, -1
  %34 = ashr i32 %33, 5
  %35 = sext i32 %34 to i64
  %36 = getelementptr inbounds i32, ptr %12, i64 %35
  %37 = load i32, ptr %36, align 4, !tbaa !38
  %38 = and i32 %33, 31
  %39 = lshr i32 %37, %38
  %40 = getelementptr i8, ptr %31, i64 40
  %.val16 = load ptr, ptr %40, align 8, !tbaa !126
  %41 = ptrtoint ptr %.val16 to i64
  %sext = shl i64 %41, 32
  %42 = ashr exact i64 %sext, 30
  %43 = getelementptr inbounds i8, ptr %.val17, i64 %42
  %44 = load i32, ptr %43, align 4, !tbaa !38
  %45 = trunc i32 %39 to i1
  %46 = icmp ne i32 %44, 1
  %.not = xor i1 %46, %45
  br i1 %.not, label %50, label %47

47:                                               ; preds = %29
  %48 = shl nuw i32 1, %38
  %49 = xor i32 %48, %37
  store i32 %49, ptr %36, align 4, !tbaa !38
  %.val.pre = load i32, ptr %8, align 4, !tbaa !47
  br label %50

50:                                               ; preds = %29, %47
  %.val = phi i32 [ %.val26, %29 ], [ %.val.pre, %47 ]
  %indvars.iv.next24 = add nuw nsw i64 %indvars.iv23, 1
  %51 = sext i32 %.val to i64
  %52 = icmp slt i64 %indvars.iv.next24, %51
  br i1 %52, label %29, label %.critedge, !llvm.loop !202

.critedge:                                        ; preds = %50, %.preheader
  ret void
}